target datalayout = "e-m:e-p270:32:32-p271:32:32-p272:64:64-i64:64-i128:128-f80:128-n8:16:32:64-S128"
target triple = "x86_64-pc-linux-gnu"

%struct._someip_payload_parameter_typedef = type { i32, ptr, i32, i32 }
%struct.pref_module = type { ptr, ptr, ptr, ptr, ptr, ptr, ptr, ptr, i32, i32, i8, i8, i32 }

@someip_module = internal global ptr null, align 8
@someip_parameter_typedefs = internal global ptr null, align 8
@someip_parameter_typedefs_num = internal global i32 0, align 4
@data_someip_parameter_typedefs = internal global ptr null, align 8

; Function Attrs: nounwind null_pointer_is_valid sspstrong uwtable
define internal void @set_prefs_changed() #7 {
  %1 = load ptr, ptr @someip_module, align 8
  %2 = icmp ne ptr %1, null
  br i1 %2, label %3, label %8

3:                                                ; preds = %0
  %4 = load ptr, ptr @someip_module, align 8
  %5 = getelementptr inbounds nuw %struct.pref_module, ptr %4, i32 0, i32 9
  %6 = load i32, ptr %5, align 4
  %7 = or i32 %6, 9
  store i32 %7, ptr %5, align 4
  br label %8

8:                                                ; preds = %3, %0
  ret void
}

; Function Attrs: null_pointer_is_valid sspstrong uwtable
define internal void @reset_someip_parameter_typedef_list_cb() #0 {
  %1 = load ptr, ptr @data_someip_parameter_typedefs, align 8
  %2 = icmp ne ptr %1, null
  br i1 %2, label %3, label %5

3:                                                ; preds = %0
  %4 = load ptr, ptr @data_someip_parameter_typedefs, align 8
  call void @g_hash_table_destroy(ptr noundef %4)
  store ptr null, ptr @data_someip_parameter_typedefs, align 8
  br label %5

5:                                                ; preds = %3, %0
  call void @set_prefs_changed()
  ret void
}

; Function Attrs: null_pointer_is_valid sspstrong uwtable
define internal void @post_update_someip_parameter_typedef_list_cb() #0 {
  %1 = alloca i32, align 4
  call void @llvm.lifetime.start.p0(i64 4, ptr %1) #19
  call void @reset_someip_parameter_typedef_list_cb()
  %2 = call ptr @g_hash_table_new_full(ptr noundef @g_direct_hash, ptr noundef @g_direct_equal, ptr noundef null, ptr noundef null)
  store ptr %2, ptr @data_someip_parameter_typedefs, align 8
  store i32 0, ptr %1, align 4
  br label %3

3:                                                ; preds = %22, %0
  %4 = load i32, ptr %1, align 4
  %5 = load i32, ptr @someip_parameter_typedefs_num, align 4
  %6 = icmp ult i32 %4, %5
  br i1 %6, label %7, label %25

7:                                                ; preds = %3
  %8 = load ptr, ptr @data_someip_parameter_typedefs, align 8
  %9 = load ptr, ptr @someip_parameter_typedefs, align 8
  %10 = load i32, ptr %1, align 4
  %11 = zext i32 %10 to i64
  %12 = getelementptr %struct._someip_payload_parameter_typedef, ptr %9, i64 %11
  %13 = getelementptr inbounds nuw %struct._someip_payload_parameter_typedef, ptr %12, i32 0, i32 0
  %14 = load i32, ptr %13, align 8
  %15 = zext i32 %14 to i64
  %16 = inttoptr i64 %15 to ptr
  %17 = load ptr, ptr @someip_parameter_typedefs, align 8
  %18 = load i32, ptr %1, align 4
  %19 = zext i32 %18 to i64
  %20 = getelementptr %struct._someip_payload_parameter_typedef, ptr %17, i64 %19
  %21 = call i32 @g_hash_table_insert(ptr noundef %8, ptr noundef %16, ptr noundef %20)
  br label %22

22:                                               ; preds = %7
  %23 = load i32, ptr %1, align 4
  %24 = add i32 %23, 1
  store i32 %24, ptr %1, align 4
  br label %3, !llvm.loop !15

25:                                               ; preds = %3
  call void @llvm.lifetime.end.p0(i64 4, ptr %1) #19
  ret void
}